; Function Attrs: mustprogress nounwind uwtable
define dso_local void @_ZN7testing8UnitTestD2Ev(ptr noundef nonnull align 8 dereferenceable(72) initializes((0, 8)) %0) unnamed_addr #5 align 2 {
  store ptr getelementptr inbounds nuw inrange(-16, 16) (i8, ptr @_ZTVN7testing8UnitTestE, i64 16), ptr %0, align 8, !tbaa !23
  %2 = getelementptr inbounds nuw i8, ptr %0, i64 64
  %3 = load ptr, ptr %2, align 8, !tbaa !48
  %4 = icmp eq ptr %3, null
  br i1 %4, label %9, label %5

5:                                                ; preds = %1
  %6 = load ptr, ptr %3, align 8, !tbaa !23
  %7 = getelementptr inbounds nuw i8, ptr %6, i64 8
  %8 = load ptr, ptr %7, align 8
  tail call void %8(ptr noundef nonnull align 8 dereferenceable(601) %3) #58
  br label %9

9:                                                ; preds = %5, %1
  %10 = getelementptr inbounds nuw i8, ptr %0, i64 8
  tail call void @_ZN7testing8internal5MutexD2Ev(ptr noundef nonnull align 8 dereferenceable(56) %10) #58
  ret void
}